target datalayout = "e-m:e-p270:32:32-p271:32:32-p272:64:64-i64:64-i128:128-f80:128-n8:16:32:64-S128"
target triple = "x86_64-pc-linux-gnu"

%struct._zend_alloc_globals = type { ptr }
%struct._zend_mm_heap = type { i32, ptr, i64, i64, [30 x ptr], i64, i64, i64, i32, ptr, ptr, ptr, i32, i32, i32, double, i32, i32, %struct.anon, ptr }
%struct.anon = type { ptr, ptr, ptr }
%struct._zend_mm_chunk = type { ptr, ptr, ptr, i32, i32, i32, [28 x i8], %struct._zend_mm_heap, [8 x i64], [512 x i32] }
%struct._zend_mm_free_slot = type { ptr }

@bin_elements = internal constant [30 x i32] [i32 512, i32 256, i32 170, i32 128, i32 102, i32 85, i32 73, i32 64, i32 51, i32 42, i32 36, i32 32, i32 25, i32 21, i32 18, i32 16, i32 64, i32 32, i32 9, i32 8, i32 32, i32 16, i32 9, i32 8, i32 16, i32 8, i32 16, i32 8, i32 8, i32 4], align 16
@bin_pages = internal constant [30 x i32] [i32 1, i32 1, i32 1, i32 1, i32 1, i32 1, i32 1, i32 1, i32 1, i32 1, i32 1, i32 1, i32 1, i32 1, i32 1, i32 1, i32 5, i32 3, i32 1, i32 1, i32 5, i32 3, i32 2, i32 2, i32 5, i32 3, i32 7, i32 4, i32 5, i32 3], align 16
@alloc_globals = internal global %struct._zend_alloc_globals zeroinitializer, align 8

; Function Attrs: nounwind uwtable
define internal ptr @zend_mm_alloc_large(ptr noundef %0, i64 noundef %1) #0 {
  %3 = alloca ptr, align 8
  %4 = alloca i64, align 8
  %5 = alloca i32, align 4
  %6 = alloca ptr, align 8
  %7 = alloca i64, align 8
  %8 = alloca i64, align 8
  %9 = alloca ptr, align 8
  %10 = alloca i64, align 8
  store ptr %0, ptr %9, align 8
  store i64 %1, ptr %10, align 8
  %11 = load ptr, ptr %9, align 8
  %12 = load i64, ptr %10, align 8
  store ptr %11, ptr %3, align 8
  store i64 %12, ptr %4, align 8
  %13 = load i64, ptr %4, align 8
  %14 = add i64 %13, 4095
  %15 = udiv i64 %14, 4096
  %16 = trunc i64 %15 to i32
  store i32 %16, ptr %5, align 4
  %17 = load ptr, ptr %3, align 8
  %18 = load i32, ptr %5, align 4
  %19 = call ptr @zend_mm_alloc_pages(ptr noundef %17, i32 noundef %18)
  store ptr %19, ptr %6, align 8
  %20 = load ptr, ptr %3, align 8
  %21 = getelementptr inbounds %struct._zend_mm_heap, ptr %20, i32 0, i32 2
  %22 = load i64, ptr %21, align 8
  %23 = load i32, ptr %5, align 4
  %24 = mul nsw i32 %23, 4096
  %25 = sext i32 %24 to i64
  %26 = add i64 %22, %25
  store i64 %26, ptr %7, align 8
  %27 = load ptr, ptr %3, align 8
  %28 = getelementptr inbounds %struct._zend_mm_heap, ptr %27, i32 0, i32 3
  %29 = load i64, ptr %28, align 8
  %30 = load i64, ptr %7, align 8
  %31 = icmp ugt i64 %29, %30
  br i1 %31, label %32, label %36

32:                                               ; preds = %2
  %33 = load ptr, ptr %3, align 8
  %34 = getelementptr inbounds %struct._zend_mm_heap, ptr %33, i32 0, i32 3
  %35 = load i64, ptr %34, align 8
  br label %38

36:                                               ; preds = %2
  %37 = load i64, ptr %7, align 8
  br label %38

38:                                               ; preds = %36, %32
  %39 = phi i64 [ %35, %32 ], [ %37, %36 ]
  store i64 %39, ptr %8, align 8
  %40 = load i64, ptr %7, align 8
  %41 = load ptr, ptr %3, align 8
  %42 = getelementptr inbounds %struct._zend_mm_heap, ptr %41, i32 0, i32 2
  store i64 %40, ptr %42, align 8
  %43 = load i64, ptr %8, align 8
  %44 = load ptr, ptr %3, align 8
  %45 = getelementptr inbounds %struct._zend_mm_heap, ptr %44, i32 0, i32 3
  store i64 %43, ptr %45, align 8
  %46 = load ptr, ptr %6, align 8
  ret ptr %46
}

; Function Attrs: nounwind uwtable
define internal ptr @zend_mm_alloc_small_slow(ptr noundef %0, i32 noundef %1) #0 {
  %3 = alloca ptr, align 8
  %4 = alloca ptr, align 8
  %5 = alloca i32, align 4
  %6 = alloca ptr, align 8
  %7 = alloca i32, align 4
  %8 = alloca ptr, align 8
  %9 = alloca ptr, align 8
  %10 = alloca ptr, align 8
  %11 = alloca i32, align 4
  store ptr %0, ptr %4, align 8
  store i32 %1, ptr %5, align 4
  %12 = load ptr, ptr %4, align 8
  %13 = load i32, ptr %5, align 4
  %14 = zext i32 %13 to i64
  %15 = getelementptr inbounds [30 x i32], ptr @bin_pages, i64 0, i64 %14
  %16 = load i32, ptr %15, align 4
  %17 = call ptr @zend_mm_alloc_pages(ptr noundef %12, i32 noundef %16)
  store ptr %17, ptr %8, align 8
  %18 = load ptr, ptr %8, align 8
  %19 = icmp eq ptr %18, null
  %20 = xor i1 %19, true
  %21 = xor i1 %20, true
  %22 = zext i1 %21 to i32
  %23 = sext i32 %22 to i64
  %24 = icmp ne i64 %23, 0
  br i1 %24, label %25, label %26

25:                                               ; preds = %2
  store ptr null, ptr %3, align 8
  br label %125

26:                                               ; preds = %2
  %27 = load ptr, ptr %8, align 8
  %28 = ptrtoint ptr %27 to i64
  %29 = and i64 %28, -2097152
  %30 = inttoptr i64 %29 to ptr
  store ptr %30, ptr %6, align 8
  %31 = load ptr, ptr %8, align 8
  %32 = ptrtoint ptr %31 to i64
  %33 = and i64 %32, 2097151
  %34 = udiv i64 %33, 4096
  %35 = trunc i64 %34 to i32
  store i32 %35, ptr %7, align 4
  %36 = load i32, ptr %5, align 4
  %37 = shl i32 %36, 0
  %38 = or i32 -2147483648, %37
  %39 = load ptr, ptr %6, align 8
  %40 = getelementptr inbounds %struct._zend_mm_chunk, ptr %39, i32 0, i32 9
  %41 = load i32, ptr %7, align 4
  %42 = sext i32 %41 to i64
  %43 = getelementptr inbounds [512 x i32], ptr %40, i64 0, i64 %42
  store i32 %38, ptr %43, align 4
  %44 = load i32, ptr %5, align 4
  %45 = zext i32 %44 to i64
  %46 = getelementptr inbounds [30 x i32], ptr @bin_pages, i64 0, i64 %45
  %47 = load i32, ptr %46, align 4
  %48 = icmp ugt i32 %47, 1
  br i1 %48, label %49, label %74

49:                                               ; preds = %26
  store i32 1, ptr %11, align 4
  br label %50

50:                                               ; preds = %66, %49
  %51 = load i32, ptr %5, align 4
  %52 = shl i32 %51, 0
  %53 = or i32 -1073741824, %52
  %54 = load i32, ptr %11, align 4
  %55 = shl i32 %54, 16
  %56 = or i32 %53, %55
  %57 = load ptr, ptr %6, align 8
  %58 = getelementptr inbounds %struct._zend_mm_chunk, ptr %57, i32 0, i32 9
  %59 = load i32, ptr %7, align 4
  %60 = load i32, ptr %11, align 4
  %61 = add i32 %59, %60
  %62 = zext i32 %61 to i64
  %63 = getelementptr inbounds [512 x i32], ptr %58, i64 0, i64 %62
  store i32 %56, ptr %63, align 4
  %64 = load i32, ptr %11, align 4
  %65 = add i32 %64, 1
  store i32 %65, ptr %11, align 4
  br label %66

66:                                               ; preds = %50
  %67 = load i32, ptr %11, align 4
  %68 = load i32, ptr %5, align 4
  %69 = zext i32 %68 to i64
  %70 = getelementptr inbounds [30 x i32], ptr @bin_pages, i64 0, i64 %69
  %71 = load i32, ptr %70, align 4
  %72 = icmp ult i32 %67, %71
  br i1 %72, label %50, label %73

73:                                               ; preds = %66
  br label %74

74:                                               ; preds = %73, %26
  %75 = load ptr, ptr %8, align 8
  %76 = load i32, ptr %5, align 4
  %77 = zext i32 %76 to i64
  %78 = getelementptr inbounds [30 x i32], ptr @bin_data_size, i64 0, i64 %77
  %79 = load i32, ptr %78, align 4
  %80 = load i32, ptr %5, align 4
  %81 = zext i32 %80 to i64
  %82 = getelementptr inbounds [30 x i32], ptr @bin_elements, i64 0, i64 %81
  %83 = load i32, ptr %82, align 4
  %84 = sub i32 %83, 1
  %85 = mul i32 %79, %84
  %86 = zext i32 %85 to i64
  %87 = getelementptr inbounds i8, ptr %75, i64 %86
  store ptr %87, ptr %10, align 8
  %88 = load ptr, ptr %8, align 8
  %89 = load i32, ptr %5, align 4
  %90 = zext i32 %89 to i64
  %91 = getelementptr inbounds [30 x i32], ptr @bin_data_size, i64 0, i64 %90
  %92 = load i32, ptr %91, align 4
  %93 = zext i32 %92 to i64
  %94 = getelementptr inbounds i8, ptr %88, i64 %93
  store ptr %94, ptr %9, align 8
  %95 = load ptr, ptr %4, align 8
  %96 = getelementptr inbounds %struct._zend_mm_heap, ptr %95, i32 0, i32 4
  %97 = load i32, ptr %5, align 4
  %98 = zext i32 %97 to i64
  %99 = getelementptr inbounds [30 x ptr], ptr %96, i64 0, i64 %98
  store ptr %94, ptr %99, align 8
  br label %100

100:                                              ; preds = %117, %74
  %101 = load ptr, ptr %9, align 8
  %102 = load i32, ptr %5, align 4
  %103 = zext i32 %102 to i64
  %104 = getelementptr inbounds [30 x i32], ptr @bin_data_size, i64 0, i64 %103
  %105 = load i32, ptr %104, align 4
  %106 = zext i32 %105 to i64
  %107 = getelementptr inbounds i8, ptr %101, i64 %106
  %108 = load ptr, ptr %9, align 8
  %109 = getelementptr inbounds %struct._zend_mm_free_slot, ptr %108, i32 0, i32 0
  store ptr %107, ptr %109, align 8
  %110 = load ptr, ptr %9, align 8
  %111 = load i32, ptr %5, align 4
  %112 = zext i32 %111 to i64
  %113 = getelementptr inbounds [30 x i32], ptr @bin_data_size, i64 0, i64 %112
  %114 = load i32, ptr %113, align 4
  %115 = zext i32 %114 to i64
  %116 = getelementptr inbounds i8, ptr %110, i64 %115
  store ptr %116, ptr %9, align 8
  br label %117

117:                                              ; preds = %100
  %118 = load ptr, ptr %9, align 8
  %119 = load ptr, ptr %10, align 8
  %120 = icmp ne ptr %118, %119
  br i1 %120, label %100, label %121

121:                                              ; preds = %117
  %122 = load ptr, ptr %9, align 8
  %123 = getelementptr inbounds %struct._zend_mm_free_slot, ptr %122, i32 0, i32 0
  store ptr null, ptr %123, align 8
  %124 = load ptr, ptr %8, align 8
  store ptr %124, ptr %3, align 8
  br label %125

125:                                              ; preds = %121, %25
  %126 = load ptr, ptr %3, align 8
  ret ptr %126
}

; Function Attrs: nounwind allocsize(0) uwtable
define noalias ptr @_emalloc(i64 noundef %0) #7 {
  %2 = alloca i32, align 4
  %3 = alloca i32, align 4
  %4 = alloca i64, align 8
  %5 = alloca i32, align 4
  %6 = alloca i32, align 4
  %7 = alloca ptr, align 8
  %8 = alloca ptr, align 8
  %9 = alloca i32, align 4
  %10 = alloca i64, align 8
  %11 = alloca i64, align 8
  %12 = alloca ptr, align 8
  %13 = alloca ptr, align 8
  %14 = alloca ptr, align 8
  %15 = alloca i64, align 8
  %16 = alloca ptr, align 8
  %17 = alloca ptr, align 8
  %18 = alloca i64, align 8
  store i64 %0, ptr %18, align 8
  %19 = load ptr, ptr @alloc_globals, align 8
  %20 = getelementptr inbounds %struct._zend_mm_heap, ptr %19, i32 0, i32 0
  %21 = load i32, ptr %20, align 8
  %22 = icmp ne i32 %21, 0
  %23 = xor i1 %22, true
  %24 = xor i1 %23, true
  %25 = zext i1 %24 to i32
  %26 = sext i32 %25 to i64
  %27 = icmp ne i64 %26, 0
  br i1 %27, label %28, label %35

28:                                               ; preds = %1
  %29 = load ptr, ptr @alloc_globals, align 8
  %30 = getelementptr inbounds %struct._zend_mm_heap, ptr %29, i32 0, i32 18
  %31 = getelementptr inbounds %struct.anon, ptr %30, i32 0, i32 0
  %32 = load ptr, ptr %31, align 8
  %33 = load i64, ptr %18, align 8
  %34 = call ptr %32(i64 noundef %33)
  store ptr %34, ptr %17, align 8
  br label %147

35:                                               ; preds = %1
  %36 = load ptr, ptr @alloc_globals, align 8
  %37 = load i64, ptr %18, align 8
  store ptr %36, ptr %14, align 8
  store i64 %37, ptr %15, align 8
  %38 = load i64, ptr %15, align 8
  %39 = icmp ule i64 %38, 3072
  br i1 %39, label %40, label %133

40:                                               ; preds = %35
  %41 = load ptr, ptr %14, align 8
  %42 = load i64, ptr %15, align 8
  store i64 %42, ptr %4, align 8
  %43 = load i64, ptr %4, align 8
  %44 = icmp ule i64 %43, 64
  br i1 %44, label %45, label %54

45:                                               ; preds = %40
  %46 = load i64, ptr %4, align 8
  %47 = load i64, ptr %4, align 8
  %48 = icmp ne i64 %47, 0
  %49 = zext i1 %48 to i32
  %50 = sext i32 %49 to i64
  %51 = sub i64 %46, %50
  %52 = lshr i64 %51, 3
  %53 = trunc i64 %52 to i32
  store i32 %53, ptr %3, align 4
  br label %74

54:                                               ; preds = %40
  %55 = load i64, ptr %4, align 8
  %56 = sub i64 %55, 1
  %57 = trunc i64 %56 to i32
  store i32 %57, ptr %5, align 4
  %58 = load i32, ptr %5, align 4
  store i32 %58, ptr %2, align 4
  %59 = load i32, ptr %2, align 4
  %60 = call i32 @llvm.ctlz.i32(i32 %59, i1 true)
  %61 = xor i32 %60, 31
  %62 = add nsw i32 %61, 1
  %63 = sub nsw i32 %62, 3
  store i32 %63, ptr %6, align 4
  %64 = load i32, ptr %5, align 4
  %65 = load i32, ptr %6, align 4
  %66 = lshr i32 %64, %65
  store i32 %66, ptr %5, align 4
  %67 = load i32, ptr %6, align 4
  %68 = sub i32 %67, 3
  store i32 %68, ptr %6, align 4
  %69 = load i32, ptr %6, align 4
  %70 = shl i32 %69, 2
  store i32 %70, ptr %6, align 4
  %71 = load i32, ptr %5, align 4
  %72 = load i32, ptr %6, align 4
  %73 = add i32 %71, %72
  store i32 %73, ptr %3, align 4
  br label %74

74:                                               ; preds = %54, %45
  %75 = load i32, ptr %3, align 4
  store ptr %41, ptr %8, align 8
  store i32 %75, ptr %9, align 4
  %76 = load ptr, ptr %8, align 8
  %77 = getelementptr inbounds %struct._zend_mm_heap, ptr %76, i32 0, i32 2
  %78 = load i64, ptr %77, align 8
  %79 = load i32, ptr %9, align 4
  %80 = sext i32 %79 to i64
  %81 = getelementptr inbounds [30 x i32], ptr @bin_data_size, i64 0, i64 %80
  %82 = load i32, ptr %81, align 4
  %83 = zext i32 %82 to i64
  %84 = add i64 %78, %83
  store i64 %84, ptr %10, align 8
  %85 = load ptr, ptr %8, align 8
  %86 = getelementptr inbounds %struct._zend_mm_heap, ptr %85, i32 0, i32 3
  %87 = load i64, ptr %86, align 8
  %88 = load i64, ptr %10, align 8
  %89 = icmp ugt i64 %87, %88
  br i1 %89, label %90, label %94

90:                                               ; preds = %74
  %91 = load ptr, ptr %8, align 8
  %92 = getelementptr inbounds %struct._zend_mm_heap, ptr %91, i32 0, i32 3
  %93 = load i64, ptr %92, align 8
  br label %96

94:                                               ; preds = %74
  %95 = load i64, ptr %10, align 8
  br label %96

96:                                               ; preds = %94, %90
  %97 = phi i64 [ %93, %90 ], [ %95, %94 ]
  store i64 %97, ptr %11, align 8
  %98 = load i64, ptr %10, align 8
  %99 = load ptr, ptr %8, align 8
  %100 = getelementptr inbounds %struct._zend_mm_heap, ptr %99, i32 0, i32 2
  store i64 %98, ptr %100, align 8
  %101 = load i64, ptr %11, align 8
  %102 = load ptr, ptr %8, align 8
  %103 = getelementptr inbounds %struct._zend_mm_heap, ptr %102, i32 0, i32 3
  store i64 %101, ptr %103, align 8
  %104 = load ptr, ptr %8, align 8
  %105 = getelementptr inbounds %struct._zend_mm_heap, ptr %104, i32 0, i32 4
  %106 = load i32, ptr %9, align 4
  %107 = sext i32 %106 to i64
  %108 = getelementptr inbounds [30 x ptr], ptr %105, i64 0, i64 %107
  %109 = load ptr, ptr %108, align 8
  %110 = icmp ne ptr %109, null
  br i1 %110, label %111, label %126

111:                                              ; preds = %96
  %112 = load ptr, ptr %8, align 8
  %113 = getelementptr inbounds %struct._zend_mm_heap, ptr %112, i32 0, i32 4
  %114 = load i32, ptr %9, align 4
  %115 = sext i32 %114 to i64
  %116 = getelementptr inbounds [30 x ptr], ptr %113, i64 0, i64 %115
  %117 = load ptr, ptr %116, align 8
  store ptr %117, ptr %12, align 8
  %118 = load ptr, ptr %12, align 8
  %119 = load ptr, ptr %118, align 8
  %120 = load ptr, ptr %8, align 8
  %121 = getelementptr inbounds %struct._zend_mm_heap, ptr %120, i32 0, i32 4
  %122 = load i32, ptr %9, align 4
  %123 = sext i32 %122 to i64
  %124 = getelementptr inbounds [30 x ptr], ptr %121, i64 0, i64 %123
  store ptr %119, ptr %124, align 8
  %125 = load ptr, ptr %12, align 8
  store ptr %125, ptr %7, align 8
  br label %130

126:                                              ; preds = %96
  %127 = load ptr, ptr %8, align 8
  %128 = load i32, ptr %9, align 4
  %129 = call ptr @zend_mm_alloc_small_slow(ptr noundef %127, i32 noundef %128)
  store ptr %129, ptr %7, align 8
  br label %130

130:                                              ; preds = %126, %111
  %131 = load ptr, ptr %7, align 8
  store ptr %131, ptr %16, align 8
  %132 = load ptr, ptr %16, align 8
  store ptr %132, ptr %13, align 8
  br label %145

133:                                              ; preds = %35
  %134 = load i64, ptr %15, align 8
  %135 = icmp ule i64 %134, 2093056
  br i1 %135, label %136, label %141

136:                                              ; preds = %133
  %137 = load ptr, ptr %14, align 8
  %138 = load i64, ptr %15, align 8
  %139 = call ptr @zend_mm_alloc_large(ptr noundef %137, i64 noundef %138)
  store ptr %139, ptr %16, align 8
  %140 = load ptr, ptr %16, align 8
  store ptr %140, ptr %13, align 8
  br label %145

141:                                              ; preds = %133
  %142 = load ptr, ptr %14, align 8
  %143 = load i64, ptr %15, align 8
  %144 = call ptr @zend_mm_alloc_huge(ptr noundef %142, i64 noundef %143)
  store ptr %144, ptr %13, align 8
  br label %145

145:                                              ; preds = %141, %136, %130
  %146 = load ptr, ptr %13, align 8
  store ptr %146, ptr %17, align 8
  br label %147

147:                                              ; preds = %145, %28
  %148 = load ptr, ptr %17, align 8
  ret ptr %148
}