; Function Attrs: nounwind allocsize(0) uwtable
define noalias ptr @_emalloc(i64 noundef %0) local_unnamed_addr #9 {
  %2 = load ptr, ptr @alloc_globals.0, align 8
  %3 = load i32, ptr %2, align 8
  %.not = icmp eq i32 %3, 0
  br i1 %.not, label %8, label %4

4:                                                ; preds = %1
  %5 = getelementptr inbounds i8, ptr %2, i64 360
  %6 = load ptr, ptr %5, align 8
  %7 = tail call ptr %6(i64 noundef %0) #35
  br label %zend_mm_alloc_small_slow.exit

8:                                                ; preds = %1
  %9 = icmp ult i64 %0, 3073
  br i1 %9, label %10, label %81

10:                                               ; preds = %8
  %11 = icmp ult i64 %0, 65
  br i1 %11, label %12, label %17

12:                                               ; preds = %10
  %13 = icmp ne i64 %0, 0
  %.neg = sext i1 %13 to i64
  %14 = add nsw i64 %.neg, %0
  %15 = lshr i64 %14, 3
  %16 = trunc i64 %15 to i32
  br label %25

17:                                               ; preds = %10
  %18 = trunc i64 %0 to i32
  %19 = add nsw i32 %18, -1
  %20 = tail call i32 @llvm.ctlz.i32(i32 %19, i1 true), !range !4
  %21 = sub nuw nsw i32 29, %20
  %22 = lshr i32 %19, %21
  %23 = shl nuw nsw i32 %20, 2
  %reass.sub57 = sub nsw i32 %22, %23
  %24 = add nsw i32 %reass.sub57, 104
  br label %25

25:                                               ; preds = %17, %12
  %.0 = phi i32 [ %16, %12 ], [ %24, %17 ]
  %26 = getelementptr inbounds i8, ptr %2, i64 16
  %27 = load i64, ptr %26, align 8
  %28 = sext i32 %.0 to i64
  %29 = getelementptr inbounds [30 x i32], ptr @bin_data_size, i64 0, i64 %28
  %30 = load i32, ptr %29, align 4
  %31 = zext i32 %30 to i64
  %32 = add i64 %27, %31
  %33 = getelementptr inbounds i8, ptr %2, i64 24
  %34 = load i64, ptr %33, align 8
  %. = tail call i64 @llvm.umax.i64(i64 %34, i64 %32)
  store i64 %32, ptr %26, align 8
  store i64 %., ptr %33, align 8
  %35 = getelementptr inbounds i8, ptr %2, i64 32
  %36 = getelementptr inbounds [30 x ptr], ptr %35, i64 0, i64 %28
  %37 = load ptr, ptr %36, align 8
  %.not54 = icmp eq ptr %37, null
  br i1 %.not54, label %40, label %38

38:                                               ; preds = %25
  %39 = load ptr, ptr %37, align 8
  store ptr %39, ptr %36, align 8
  br label %zend_mm_alloc_small_slow.exit

40:                                               ; preds = %25
  %41 = zext i32 %.0 to i64
  %42 = getelementptr inbounds [30 x i32], ptr @bin_pages, i64 0, i64 %41
  %43 = load i32, ptr %42, align 4
  %44 = tail call fastcc ptr @zend_mm_alloc_pages(ptr noundef nonnull %2, i32 noundef %43)
  %45 = icmp eq ptr %44, null
  br i1 %45, label %zend_mm_alloc_small_slow.exit, label %46

46:                                               ; preds = %40
  %47 = ptrtoint ptr %44 to i64
  %48 = and i64 %47, -2097152
  %49 = inttoptr i64 %48 to ptr
  %50 = trunc i64 %47 to i32
  %51 = lshr i32 %50, 12
  %52 = and i32 %51, 511
  %53 = or i32 %.0, -2147483648
  %54 = getelementptr inbounds i8, ptr %49, i64 520
  %55 = zext nneg i32 %52 to i64
  %56 = getelementptr inbounds [512 x i32], ptr %54, i64 0, i64 %55
  store i32 %53, ptr %56, align 4
  %57 = lshr i64 1072889856, %41
  %58 = and i64 %57, 1
  %.not.i = icmp eq i64 %58, 0
  br i1 %.not.i, label %.loopexit.i, label %.preheader.i

.preheader.i:                                     ; preds = %46
  %umax.i = tail call i32 @llvm.umax.i32(i32 %43, i32 2)
  %wide.trip.count.i = zext i32 %umax.i to i64
  br label %59

59:                                               ; preds = %59, %.preheader.i
  %indvars.iv.i = phi i64 [ 1, %.preheader.i ], [ %indvars.iv.next.i, %59 ]
  %60 = trunc i64 %indvars.iv.i to i32
  %61 = shl i32 %60, 16
  %62 = or i32 %.0, %61
  %63 = or i32 %62, -1073741824
  %64 = add i32 %52, %60
  %65 = zext i32 %64 to i64
  %66 = getelementptr inbounds [512 x i32], ptr %54, i64 0, i64 %65
  store i32 %63, ptr %66, align 4
  %indvars.iv.next.i = add nuw nsw i64 %indvars.iv.i, 1
  %exitcond.not.i = icmp eq i64 %indvars.iv.next.i, %wide.trip.count.i
  br i1 %exitcond.not.i, label %.loopexit.i, label %59

.loopexit.i:                                      ; preds = %59, %46
  %67 = getelementptr inbounds [30 x i32], ptr @bin_data_size, i64 0, i64 %41
  %68 = load i32, ptr %67, align 4
  %69 = getelementptr inbounds [30 x i32], ptr @bin_elements, i64 0, i64 %41
  %70 = load i32, ptr %69, align 4
  %71 = add i32 %70, -1
  %72 = mul i32 %71, %68
  %73 = zext i32 %72 to i64
  %74 = getelementptr inbounds i8, ptr %44, i64 %73
  %75 = zext i32 %68 to i64
  %76 = getelementptr inbounds i8, ptr %44, i64 %75
  %77 = getelementptr inbounds [30 x ptr], ptr %35, i64 0, i64 %41
  store ptr %76, ptr %77, align 8
  br label %78

78:                                               ; preds = %78, %.loopexit.i
  %.034.i = phi ptr [ %76, %.loopexit.i ], [ %79, %78 ]
  %79 = getelementptr inbounds i8, ptr %.034.i, i64 %75
  store ptr %79, ptr %.034.i, align 8
  %.not37.i = icmp eq ptr %79, %74
  br i1 %.not37.i, label %80, label %78

80:                                               ; preds = %78
  store ptr null, ptr %74, align 8
  br label %zend_mm_alloc_small_slow.exit

81:                                               ; preds = %8
  %82 = icmp ult i64 %0, 2093057
  br i1 %82, label %83, label %94

83:                                               ; preds = %81
  %84 = add nuw nsw i64 %0, 4095
  %85 = lshr i64 %84, 12
  %86 = trunc i64 %85 to i32
  %87 = tail call fastcc ptr @zend_mm_alloc_pages(ptr noundef nonnull %2, i32 noundef %86)
  %88 = getelementptr inbounds i8, ptr %2, i64 16
  %89 = load i64, ptr %88, align 8
  %90 = and i64 %84, 4190208
  %91 = add i64 %89, %90
  %92 = getelementptr inbounds i8, ptr %2, i64 24
  %93 = load i64, ptr %92, align 8
  %..i = tail call i64 @llvm.umax.i64(i64 %93, i64 %91)
  store i64 %91, ptr %88, align 8
  store i64 %..i, ptr %92, align 8
  br label %zend_mm_alloc_small_slow.exit

94:                                               ; preds = %81
  %95 = tail call fastcc ptr @zend_mm_alloc_huge(ptr noundef nonnull %2, i64 noundef %0)
  br label %zend_mm_alloc_small_slow.exit

zend_mm_alloc_small_slow.exit:                    ; preds = %80, %40, %83, %94, %38, %4
  %.047 = phi ptr [ %7, %4 ], [ %87, %83 ], [ %95, %94 ], [ %37, %38 ], [ null, %40 ], [ %44, %80 ]
  ret ptr %.047
}